target datalayout = "e-m:e-p270:32:32-p271:32:32-p272:64:64-i64:64-i128:128-f80:128-n8:16:32:64-S128"
target triple = "x86_64-pc-linux-gnu"

; Function Attrs: mustprogress nounwind uwtable
define internal noundef ptr @_ZN12_GLOBAL__N_113fromLoaderCxtEP22WasmEdge_LoaderContext(ptr noundef %0) #0 {
  %2 = alloca ptr, align 8
  store ptr %0, ptr %2, align 8
  %3 = load ptr, ptr %2, align 8
  ret ptr %3
}

; Function Attrs: mustprogress nounwind uwtable
define void @WasmEdge_LoaderDelete(ptr noundef %0) #0 {
  %2 = alloca ptr, align 8
  store ptr %0, ptr %2, align 8
  %3 = load ptr, ptr %2, align 8
  %4 = call noundef ptr @_ZN12_GLOBAL__N_113fromLoaderCxtEP22WasmEdge_LoaderContext(ptr noundef %3) #18
  %5 = icmp eq ptr %4, null
  br i1 %5, label %7, label %6

6:                                                ; preds = %1
  call void @_ZN8WasmEdge6Loader6LoaderD2Ev(ptr noundef nonnull align 8 dereferenceable(360) %4) #18
  call void @_ZdlPvm(ptr noundef %4, i64 noundef 360) #22
  br label %7

7:                                                ; preds = %6, %1
  ret void
}