; Function Attrs: mustprogress nounwind uwtable
define void @WasmEdge_LoaderDelete(ptr noundef %0) local_unnamed_addr #10 {
  %2 = icmp eq ptr %0, null
  br i1 %2, label %4, label %3

3:                                                ; preds = %1
  tail call void @_ZN8WasmEdge6Loader6LoaderD2Ev(ptr noundef nonnull align 8 dereferenceable(360) %0) #37
  tail call void @_ZdlPvm(ptr noundef nonnull %0, i64 noundef 360) #36
  br label %4

4:                                                ; preds = %3, %1
  ret void
}